(dp0
Vengine
p1
S'pdflatex'
p2
sVpackages
p3
c__builtin__
set
p4
((lp5
Vamsmath
p6
aVcolor
p7
aVgraphicx
p8
aVgeometry
p9
aVamssymb
p10
atp11
Rp12
sVfiles_with_guttermarks
p13
g4
((lp14
S'report.tex'
p15
atp16
Rp17
sVsynctex
p18
I01
s.